
Merging program properties

Removed property 0xc0000002 to merge ide.o (0x3) and entry.o (not found)
Removed property 0xc0000002 to merge ide.o (not found) and floppy.o (0x3)
Removed property 0xc0000002 to merge ide.o (not found) and e1000.o (0x3)
Removed property 0xc0000002 to merge ide.o (not found) and pci.o (0x3)
Removed property 0xc0000002 to merge ide.o (not found) and vm86.o (0x3)
Removed property 0xc0000002 to merge ide.o (not found) and kbd.o (0x3)
Removed property 0xc0000002 to merge ide.o (not found) and timer.o (0x3)
Removed property 0xc0000002 to merge ide.o (not found) and machdep.o (0x3)
Removed property 0xc0000002 to merge ide.o (not found) and task.o (0x3)
Removed property 0xc0000002 to merge ide.o (not found) and mktime.o (0x3)
Removed property 0xc0000002 to merge ide.o (not found) and sem.o (0x3)
Removed property 0xc0000002 to merge ide.o (not found) and page.o (0x3)
Removed property 0xc0000002 to merge ide.o (not found) and startup.o (0x3)
Removed property 0xc0000002 to merge ide.o (not found) and frame.o (0x3)
Removed property 0xc0000002 to merge ide.o (not found) and kmalloc.o (0x3)
Removed property 0xc0000002 to merge ide.o (not found) and dosfs.o (0x3)
Removed property 0xc0000002 to merge ide.o (not found) and pe.o (0x3)
Removed property 0xc0000002 to merge ide.o (not found) and elf.o (0x3)
Removed property 0xc0000002 to merge ide.o (not found) and printk.o (0x3)
Removed property 0xc0000002 to merge ide.o (not found) and bitmap.o (0x3)
Removed property 0xc0000002 to merge ide.o (not found) and ../lib/softfloat.o (0x3)
Removed property 0xc0000002 to merge ide.o (not found) and ../lib/string.o (0x3)
Removed property 0xc0000002 to merge ide.o (not found) and ../lib/memcpy.o (0x3)
Removed property 0xc0000002 to merge ide.o (not found) and ../lib/memset.o (0x3)
Removed property 0xc0000002 to merge ide.o (not found) and ../lib/snprintf.o (0x3)
Removed property 0xc0000002 to merge ide.o (not found) and ../lib/tlsf/tlsf.o (0x3)

Allocating common symbols
Common symbol       size              file

_g_task_own_fpu     0x4               task.o
_g_startup_time     0x4               machdep.o
_task0              0x4               task.o
_g_task_running     0x4               task.o
_g_resched          0x4               task.o
_g_intr_vector      0x40              startup.o
_g_ram_zone         0x40              startup.o
_g_volinfo          0x34              startup.o
_g_task_head        0x4               task.o

Discarded input sections

 .note.gnu.property
                0x0000000000000000       0x1c ide.o
 .note.gnu.property
                0x0000000000000000       0x1c floppy.o
 .note.gnu.property
                0x0000000000000000       0x1c e1000.o
 .note.gnu.property
                0x0000000000000000       0x1c pci.o
 .note.gnu.property
                0x0000000000000000       0x1c vm86.o
 .note.gnu.property
                0x0000000000000000       0x1c kbd.o
 .note.gnu.property
                0x0000000000000000       0x1c timer.o
 .note.gnu.property
                0x0000000000000000       0x1c machdep.o
 .note.gnu.property
                0x0000000000000000       0x1c task.o
 .note.gnu.property
                0x0000000000000000       0x1c mktime.o
 .note.gnu.property
                0x0000000000000000       0x1c sem.o
 .note.gnu.property
                0x0000000000000000       0x1c page.o
 .note.gnu.property
                0x0000000000000000       0x1c startup.o
 .note.gnu.property
                0x0000000000000000       0x1c frame.o
 .note.gnu.property
                0x0000000000000000       0x1c kmalloc.o
 .note.gnu.property
                0x0000000000000000       0x1c dosfs.o
 .note.gnu.property
                0x0000000000000000       0x1c pe.o
 .note.gnu.property
                0x0000000000000000       0x1c elf.o
 .note.gnu.property
                0x0000000000000000       0x1c printk.o
 .note.gnu.property
                0x0000000000000000       0x1c bitmap.o
 .note.gnu.property
                0x0000000000000000       0x1c ../lib/softfloat.o
 .note.gnu.property
                0x0000000000000000       0x1c ../lib/string.o
 .note.gnu.property
                0x0000000000000000       0x1c ../lib/memcpy.o
 .note.gnu.property
                0x0000000000000000       0x1c ../lib/memset.o
 .note.gnu.property
                0x0000000000000000       0x1c ../lib/snprintf.o
 .note.gnu.property
                0x0000000000000000       0x1c ../lib/tlsf/tlsf.o

Memory Configuration

Name             Origin             Length             Attributes
*default*        0x0000000000000000 0xffffffffffffffff

Linker script and memory map

LOAD entry.o
LOAD ide.o
LOAD floppy.o
LOAD e1000.o
LOAD pci.o
LOAD vm86.o
LOAD kbd.o
LOAD timer.o
LOAD machdep.o
LOAD task.o
LOAD mktime.o
LOAD sem.o
LOAD page.o
LOAD startup.o
LOAD frame.o
LOAD kmalloc.o
LOAD dosfs.o
LOAD pe.o
LOAD elf.o
LOAD printk.o
LOAD bitmap.o
LOAD ../lib/softfloat.o
LOAD ../lib/string.o
LOAD ../lib/memcpy.o
LOAD ../lib/memset.o
LOAD ../lib/snprintf.o
LOAD ../lib/tlsf/tlsf.o
                0x00000000c0100000                . = 0xc0100000

.note.gnu.build-id
                0x00000000c0100000       0x24
 .note.gnu.build-id
                0x00000000c0100000       0x24 entry.o

.text           0x00000000c0100030     0x94d0
 *(.text)
 .text          0x00000000c0100030      0x971 entry.o
                0x00000000c0100030                _entry
                0x00000000c0100066                _exception_divide_error
                0x00000000c010006c                _exception_debug
                0x00000000c0100072                _exception_nmi
                0x00000000c0100078                _exception_breakpoint
                0x00000000c010007e                _exception_overflow
                0x00000000c0100084                _exception_bounds_check
                0x00000000c010008a                _exception_inval_opcode
                0x00000000c0100090                _exception_copr_not_avail
                0x00000000c0100096                _exception_double_fault
                0x00000000c010009a                _exception_copr_seg_overrun
                0x00000000c01000a0                _exception_inval_tss
                0x00000000c01000a4                _exception_segment_not_present
                0x00000000c01000a8                _exception_stack_fault
                0x00000000c01000ac                _exception_general_protection
                0x00000000c01000b0                _exception_page_fault
                0x00000000c01000b4                _exception_intel_reserved
                0x00000000c01000ba                _exception_copr_error
                0x00000000c01000c0                _exception_alignment_check
                0x00000000c01000c4                _exception_machine_check
                0x00000000c01000ca                _exception_simd_fp
                0x00000000c0100159                _int0x82_syscall
                0x00000000c01001b5                _ret_from_syscall
                0x00000000c01001ef                _hwint00
                0x00000000c0100264                _hwint01
                0x00000000c01002d9                _hwint02
                0x00000000c010034e                _hwint03
                0x00000000c01003c3                _hwint04
                0x00000000c0100438                _hwint05
                0x00000000c01004ad                _hwint06
                0x00000000c0100522                _hwint07
                0x00000000c0100597                _hwint08
                0x00000000c010060e                _hwint09
                0x00000000c0100685                _hwint10
                0x00000000c01006fc                _hwint11
                0x00000000c0100773                _hwint12
                0x00000000c01007ea                _hwint13
                0x00000000c0100861                _hwint14
                0x00000000c01008d8                _hwint15
                0x00000000c010094f                _lgdt
                0x00000000c0100975                _lidt
                0x00000000c010097d                _sys_vm86
 *fill*         0x00000000c01009a1        0xf 
 .text          0x00000000c01009b0      0x234 ide.o
                0x00000000c01009b0                _ide_init
                0x00000000c0100a20                _ide_read_sector
                0x00000000c0100b20                _ide_write_sector
 .text          0x00000000c0100be4        0x0 floppy.o
 *fill*         0x00000000c0100be4        0xc 
 .text          0x00000000c0100bf0      0x577 e1000.o
                0x00000000c0100c30                _e1000_getmac
                0x00000000c0100cb0                _e1000_init
                0x00000000c0101050                _e1000_send
                0x00000000c01010d0                _sys_recv
 *fill*         0x00000000c0101167        0x9 
 .text          0x00000000c0101170      0x308 pci.o
                0x00000000c0101170                _pci_get_bar_addr
                0x00000000c01011d0                _pci_get_bar_size
                0x00000000c0101290                _pci_get_intr_line
                0x00000000c01012f0                _pci_init
 *fill*         0x00000000c0101478        0x8 
 .text          0x00000000c0101480      0xbe5 vm86.o
                0x00000000c0101480                _vm86_init
                0x00000000c01014f0                _vm86_emulate
                0x00000000c0101f30                _vm86_call
 *fill*         0x00000000c0102065        0xb 
 .text          0x00000000c0102070      0x243 kbd.o
                0x00000000c0102070                _isr_keyboard
                0x00000000c0102290                _sys_getchar
 *fill*         0x00000000c01022b3        0xd 
 .text          0x00000000c01022c0      0x2d1 timer.o
                0x00000000c0102350                _isr_timer
                0x00000000c01023a0                _calibrate_delay
                0x00000000c01024b0                _sys_sleep
                0x00000000c01024d0                _sys_nanosleep
                0x00000000c0102540                _sys_gettimeofday
 *fill*         0x00000000c0102591        0xf 
 .text          0x00000000c01025a0     0x15d4 machdep.o
                0x00000000c01025e0                _sys_time
                0x00000000c0102610                _enable_irq
                0x00000000c0102650                _disable_irq
                0x00000000c0102690                _switch_to
                0x00000000c01026d0                _sys_putchar
                0x00000000c0102800                _sys_beep
                0x00000000c0102830                _syscall
                0x00000000c0102d10                _do_page_fault
                0x00000000c0102db0                _exception
                0x00000000c0103260                _cstart
 *fill*         0x00000000c0103b74        0xc 
 .text          0x00000000c0103b80      0x553 task.o
                0x00000000c0103b80                _schedule
                0x00000000c0103c20                _sleep_on
                0x00000000c0103c90                _wake_up
                0x00000000c0103cc0                _sys_task_create
                0x00000000c0103f10                _sys_task_exit
                0x00000000c0103f70                _sys_task_wait
                0x00000000c0104050                _sys_task_getid
                0x00000000c0104070                _sys_task_yield
                0x00000000c0104090                _init_task
 *fill*         0x00000000c01040d3        0xd 
 .text          0x00000000c01040e0       0x67 mktime.o
                0x00000000c01040e0                _mktime
 *fill*         0x00000000c0104147        0x9 
 .text          0x00000000c0104150       0x3a sem.o
                0x00000000c0104150                _sys_sem_create
                0x00000000c0104160                _sys_sem_destroy
                0x00000000c0104170                _sys_sem_wait
                0x00000000c0104180                _sys_sem_signal
 *fill*         0x00000000c010418a        0x6 
 .text          0x00000000c0104190      0x489 page.o
                0x00000000c0104190                _init_vmspace
                0x00000000c01041e0                _page_alloc_in_addr
                0x00000000c0104340                _page_alloc
                0x00000000c01044a0                _page_free
                0x00000000c0104540                _page_prot
                0x00000000c0104590                _page_map
                0x00000000c01045e0                _page_unmap
 *fill*         0x00000000c0104619        0x7 
 .text          0x00000000c0104620      0x2db startup.o
                0x00000000c0104620                _isr_default
                0x00000000c0104630                _DFS_ReadSector
                0x00000000c0104680                _DFS_WriteSector
                0x00000000c01046d0                _start_user_task
                0x00000000c0104830                _mi_startup
 *fill*         0x00000000c01048fb        0x5 
 .text          0x00000000c0104900      0x292 frame.o
                0x00000000c0104900                _init_frame
                0x00000000c0104a00                _frame_alloc_in_addr
                0x00000000c0104aa0                _frame_alloc
                0x00000000c0104b30                _frame_free
 *fill*         0x00000000c0104b92        0xe 
 .text          0x00000000c0104ba0       0xdd kmalloc.o
                0x00000000c0104ba0                _kmalloc
                0x00000000c0104bd0                _krealloc
                0x00000000c0104c00                _kfree
                0x00000000c0104c30                _kmemalign
                0x00000000c0104c60                _init_kmalloc
 *fill*         0x00000000c0104c7d        0x3 
 .text          0x00000000c0104c80     0x1d47 dosfs.o
                0x00000000c0104c80                _ldiv
                0x00000000c0104cd0                _div
                0x00000000c0104d20                _DFS_GetPtnStart
                0x00000000c0104db0                _DFS_GetVolInfo
                0x00000000c0104ef0                _DFS_GetFAT
                0x00000000c0105120                _DFS_SetFAT
                0x00000000c0105470                _DFS_CanonicalToDir
                0x00000000c0105500                _DFS_GetFreeFAT
                0x00000000c0105570                _DFS_GetNext
                0x00000000c0105710                _DFS_OpenDir
                0x00000000c0105990                _DFS_GetFreeDirEnt
                0x00000000c0105ae0                _DFS_OpenFile
                0x00000000c0105f50                _DFS_ReadFile
                0x00000000c0106270                _DFS_Seek
                0x00000000c01063e0                _DFS_UnlinkFile
                0x00000000c01064f0                _DFS_WriteFile
                0x00000000c01069c0                _DFS_Close
 .text          0x00000000c01069c7        0x0 pe.o
 *fill*         0x00000000c01069c7        0x9 
 .text          0x00000000c01069d0      0x295 elf.o
                0x00000000c01069d0                _load_aout
 *fill*         0x00000000c0106c65        0xb 
 .text          0x00000000c0106c70       0x57 printk.o
                0x00000000c0106c70                _printk
 *fill*         0x00000000c0106cc7        0x9 
 .text          0x00000000c0106cd0      0x59a bitmap.o
                0x00000000c0106cd0                _bitmap_buf_size
                0x00000000c0106cf0                _bitmap_size
                0x00000000c0106d00                _bitmap_set
                0x00000000c0106d40                _bitmap_mark
                0x00000000c0106d70                _bitmap_reset
                0x00000000c0106da0                _bitmap_flip
                0x00000000c0106dd0                _bitmap_test
                0x00000000c0106e00                _bitmap_set_multiple
                0x00000000c0106ec0                _bitmap_set_all
                0x00000000c0106ee0                _bitmap_create_in_buf
                0x00000000c0106f10                _bitmap_count
                0x00000000c0106f70                _bitmap_contains
                0x00000000c0106ff0                _bitmap_any
                0x00000000c0107060                _bitmap_none
                0x00000000c01070d0                _bitmap_all
                0x00000000c0107140                _bitmap_scan
                0x00000000c0107220                _bitmap_scan_and_flip
 *fill*         0x00000000c010726a        0x6 
 .text          0x00000000c0107270      0x2b5 ../lib/softfloat.o
                0x00000000c0107350                ___udivmoddi4
                0x00000000c01073a0                ___divdi3
                0x00000000c0107410                ___moddi3
                0x00000000c0107490                ___udivdi3
                0x00000000c01074e0                ___umoddi3
 *fill*         0x00000000c0107525        0xb 
 .text          0x00000000c0107530      0x447 ../lib/string.o
                0x00000000c0107530                _memcmp
                0x00000000c0107580                _memmove
                0x00000000c01075e0                _memchr
                0x00000000c0107610                _strcat
                0x00000000c0107650                _strcmp
                0x00000000c0107690                _strncmp
                0x00000000c01076e0                _strchr
                0x00000000c0107720                _strrchr
                0x00000000c0107750                _strstr
                0x00000000c0107810                _strcpy
                0x00000000c0107850                _strlen
                0x00000000c0107880                _strncpy
                0x00000000c01078d0                _strcasecmp
                0x00000000c0107910                _strncasecmp
 *fill*         0x00000000c0107977        0x9 
 .text          0x00000000c0107980      0x5eb ../lib/memcpy.o
                0x00000000c0107980                _memcpy
 *fill*         0x00000000c0107f6b        0x5 
 .text          0x00000000c0107f70       0xb1 ../lib/memset.o
                0x00000000c0107f70                _memset
 *fill*         0x00000000c0108021        0xf 
 .text          0x00000000c0108030      0x949 ../lib/snprintf.o
                0x00000000c0108910                _vsnprintf
                0x00000000c0108940                _snprintf
 *fill*         0x00000000c0108979        0x7 
 .text          0x00000000c0108980      0xb80 ../lib/tlsf/tlsf.o
                0x00000000c0108d80                _tlsf_check
                0x00000000c0108ee0                _tlsf_walk_pool
                0x00000000c0108f50                _tlsf_block_size
                0x00000000c0108f70                _tlsf_check_pool
                0x00000000c0108fb0                _tlsf_size
                0x00000000c0108fc0                _tlsf_align_size
                0x00000000c0108fd0                _tlsf_block_size_min
                0x00000000c0108fe0                _tlsf_block_size_max
                0x00000000c0108ff0                _tlsf_pool_overhead
                0x00000000c0109000                _tlsf_alloc_overhead
                0x00000000c0109010                _tlsf_add_pool
                0x00000000c0109070                _tlsf_remove_pool
                0x00000000c01090d0                _tlsf_create
                0x00000000c0109130                _tlsf_create_with_pool
                0x00000000c01091b0                _tlsf_destroy
                0x00000000c01091c0                _tlsf_get_pool
                0x00000000c01091d0                _tlsf_malloc
                0x00000000c0109220                _tlsf_memalign
                0x00000000c0109370                _tlsf_free
                0x00000000c0109390                _tlsf_realloc

.iplt           0x00000000c0109500        0x0
 .iplt          0x00000000c0109500        0x0 entry.o
                0x00000000c0109500                . = ALIGN (0x4)

.rodata         0x00000000c0109500      0xd14
 *(.rodata)
 .rodata        0x00000000c0109500      0x240 vm86.o
 .rodata        0x00000000c0109740      0x750 kbd.o
 .rodata        0x00000000c0109e90       0x90 machdep.o
 .rodata        0x00000000c0109f20       0x30 mktime.o
 .rodata        0x00000000c0109f50        0xc dosfs.o
 *fill*         0x00000000c0109f5c        0x4 
 .rodata        0x00000000c0109f60      0x100 ../lib/string.o
 .rodata        0x00000000c010a060       0x20 ../lib/memcpy.o
 .rodata        0x00000000c010a080      0x194 ../lib/snprintf.o

.rodata.str1.1  0x00000000c010a214      0x2c9
 .rodata.str1.1
                0x00000000c010a214        0xd ide.o
 .rodata.str1.1
                0x00000000c010a221       0x14 e1000.o
 .rodata.str1.1
                0x00000000c010a235       0x16 timer.o
 .rodata.str1.1
                0x00000000c010a24b      0x1f2 machdep.o
                                        0x1f5 (size before relaxing)
 .rodata.str1.1
                0x00000000c010a43d       0x59 startup.o
 .rodata.str1.1
                0x00000000c010a496       0x1e elf.o
 .rodata.str1.1
                0x00000000c010a4b4       0x29 ../lib/snprintf.o

.rodata.str1.4  0x00000000c010a4e0      0x406
 .rodata.str1.4
                0x00000000c010a4e0       0x29 ide.o
 *fill*         0x00000000c010a509        0x3 
 .rodata.str1.4
                0x00000000c010a50c       0x70 e1000.o
 .rodata.str1.4
                0x00000000c010a57c       0x2a vm86.o
 *fill*         0x00000000c010a5a6        0x2 
 .rodata.str1.4
                0x00000000c010a5a8       0x2b timer.o
 *fill*         0x00000000c010a5d3        0x1 
 .rodata.str1.4
                0x00000000c010a5d4      0x147 machdep.o
 *fill*         0x00000000c010a71b        0x1 
 .rodata.str1.4
                0x00000000c010a71c       0x2e task.o
 *fill*         0x00000000c010a74a        0x2 
 .rodata.str1.4
                0x00000000c010a74c       0xec startup.o
 .rodata.str1.4
                0x00000000c010a838       0x23 frame.o
 *fill*         0x00000000c010a85b        0x1 
 .rodata.str1.4
                0x00000000c010a85c       0x8a elf.o

.eh_frame       0x00000000c010a8e8     0x2d44
 .eh_frame      0x00000000c010a8e8       0xc4 ide.o
 .eh_frame      0x00000000c010a9ac      0x1a4 e1000.o
                                        0x1bc (size before relaxing)
 .eh_frame      0x00000000c010ab50       0xec pci.o
                                        0x104 (size before relaxing)
 .eh_frame      0x00000000c010ac3c       0xf4 vm86.o
                                        0x10c (size before relaxing)
 .eh_frame      0x00000000c010ad30       0x50 kbd.o
                                         0x68 (size before relaxing)
 .eh_frame      0x00000000c010ad80       0xf4 timer.o
                                        0x10c (size before relaxing)
 .eh_frame      0x00000000c010ae74      0x578 machdep.o
                                        0x590 (size before relaxing)
 .eh_frame      0x00000000c010b3ec      0x1ac task.o
                                        0x1c4 (size before relaxing)
 .eh_frame      0x00000000c010b598       0x1c mktime.o
                                         0x34 (size before relaxing)
 .eh_frame      0x00000000c010b5b4       0x50 sem.o
                                         0x68 (size before relaxing)
 .eh_frame      0x00000000c010b604      0x1c4 page.o
                                        0x1dc (size before relaxing)
 .eh_frame      0x00000000c010b7c8      0x1c4 startup.o
                                        0x1dc (size before relaxing)
 .eh_frame      0x00000000c010b98c      0x178 frame.o
                                        0x190 (size before relaxing)
 .eh_frame      0x00000000c010bb04       0xc8 kmalloc.o
                                         0xe0 (size before relaxing)
 .eh_frame      0x00000000c010bbcc      0xa38 dosfs.o
                                        0xa50 (size before relaxing)
 .eh_frame      0x00000000c010c604      0x16c elf.o
                                        0x184 (size before relaxing)
 .eh_frame      0x00000000c010c770       0x54 printk.o
                                         0x6c (size before relaxing)
 .eh_frame      0x00000000c010c7c4      0x374 bitmap.o
                                        0x38c (size before relaxing)
 .eh_frame      0x00000000c010cb38      0x178 ../lib/softfloat.o
                                        0x190 (size before relaxing)
 .eh_frame      0x00000000c010ccb0      0x228 ../lib/string.o
                                        0x240 (size before relaxing)
 .eh_frame      0x00000000c010ced8       0x70 ../lib/memcpy.o
                                         0x88 (size before relaxing)
 .eh_frame      0x00000000c010cf48       0x4c ../lib/memset.o
                                         0x64 (size before relaxing)
 .eh_frame      0x00000000c010cf94      0x13c ../lib/snprintf.o
                                        0x154 (size before relaxing)
 .eh_frame      0x00000000c010d0d0      0x55c ../lib/tlsf/tlsf.o
                                        0x574 (size before relaxing)

.rel.dyn        0x00000000c010d62c        0x0
 .rel.got       0x00000000c010d62c        0x0 entry.o
 .rel.iplt      0x00000000c010d62c        0x0 entry.o
 .rel.text      0x00000000c010d62c        0x0 entry.o

.rdata
 *(.rdata)

.data           0x00000000c010d640     0x2038
 *(.data)
 .data          0x00000000c010d640     0x2000 entry.o
                0x00000000c010f640                _tmp_stack
 .data          0x00000000c010f640        0x0 ide.o
 .data          0x00000000c010f640        0x0 floppy.o
 .data          0x00000000c010f640        0x0 e1000.o
 .data          0x00000000c010f640        0x0 pci.o
 .data          0x00000000c010f640        0x0 vm86.o
 .data          0x00000000c010f640        0x0 kbd.o
 .data          0x00000000c010f640        0x0 timer.o
 .data          0x00000000c010f640       0x30 machdep.o
 .data          0x00000000c010f670        0x0 task.o
 .data          0x00000000c010f670        0x0 mktime.o
 .data          0x00000000c010f670        0x0 sem.o
 .data          0x00000000c010f670        0x0 page.o
 .data          0x00000000c010f670        0x8 startup.o
                0x00000000c010f670                _PTD
                0x00000000c010f674                _PT
 .data          0x00000000c010f678        0x0 frame.o
 .data          0x00000000c010f678        0x0 kmalloc.o
 .data          0x00000000c010f678        0x0 dosfs.o
 .data          0x00000000c010f678        0x0 pe.o
 .data          0x00000000c010f678        0x0 elf.o
 .data          0x00000000c010f678        0x0 printk.o
 .data          0x00000000c010f678        0x0 bitmap.o
 .data          0x00000000c010f678        0x0 ../lib/softfloat.o
 .data          0x00000000c010f678        0x0 ../lib/string.o
 .data          0x00000000c010f678        0x0 ../lib/memcpy.o
 .data          0x00000000c010f678        0x0 ../lib/memset.o
 .data          0x00000000c010f678        0x0 ../lib/snprintf.o
 .data          0x00000000c010f678        0x0 ../lib/tlsf/tlsf.o

.got            0x00000000c010f678        0x0
 .got           0x00000000c010f678        0x0 entry.o

.got.plt        0x00000000c010f678        0x0
 .got.plt       0x00000000c010f678        0x0 entry.o

.igot.plt       0x00000000c010f678        0x0
 .igot.plt      0x00000000c010f678        0x0 entry.o
                0x00000000c010f678                . = ALIGN (0x4)
                0x00000000c010f678                _edata = .

.bss            0x00000000c010f680     0x16f4
 *(.bss)
 .bss           0x00000000c010f680        0x0 entry.o
 .bss           0x00000000c010f680        0x0 ide.o
 .bss           0x00000000c010f680        0x0 floppy.o
 .bss           0x00000000c010f680       0x2c e1000.o
 *fill*         0x00000000c010f6ac       0x14 
 .bss           0x00000000c010f6c0     0x1044 pci.o
 .bss           0x00000000c0110704        0x0 vm86.o
 *fill*         0x00000000c0110704       0x1c 
 .bss           0x00000000c0110720       0x40 kbd.o
 .bss           0x00000000c0110760        0x8 timer.o
                0x00000000c0110760                _g_timer_ticks
 *fill*         0x00000000c0110768       0x18 
 .bss           0x00000000c0110780      0x488 machdep.o
 .bss           0x00000000c0110c08        0x4 task.o
 .bss           0x00000000c0110c0c        0x0 mktime.o
 .bss           0x00000000c0110c0c        0x0 sem.o
 .bss           0x00000000c0110c0c       0x18 page.o
 .bss           0x00000000c0110c24        0x0 startup.o
 *fill*         0x00000000c0110c24       0x1c 
 .bss           0x00000000c0110c40       0x60 frame.o
 .bss           0x00000000c0110ca0        0x4 kmalloc.o
 .bss           0x00000000c0110ca4        0x0 dosfs.o
 .bss           0x00000000c0110ca4        0x0 pe.o
 .bss           0x00000000c0110ca4        0x0 elf.o
 .bss           0x00000000c0110ca4        0x0 printk.o
 .bss           0x00000000c0110ca4        0x0 bitmap.o
 .bss           0x00000000c0110ca4        0x0 ../lib/softfloat.o
 .bss           0x00000000c0110ca4        0x0 ../lib/string.o
 .bss           0x00000000c0110ca4        0x0 ../lib/memcpy.o
 .bss           0x00000000c0110ca4        0x0 ../lib/memset.o
 .bss           0x00000000c0110ca4        0x0 ../lib/snprintf.o
 .bss           0x00000000c0110ca4        0x0 ../lib/tlsf/tlsf.o
 *(COMMON)
 COMMON         0x00000000c0110ca4        0x4 machdep.o
                0x00000000c0110ca4                _g_startup_time
 COMMON         0x00000000c0110ca8       0x14 task.o
                0x00000000c0110ca8                _g_task_own_fpu
                0x00000000c0110cac                _task0
                0x00000000c0110cb0                _g_task_running
                0x00000000c0110cb4                _g_resched
                0x00000000c0110cb8                _g_task_head
 *fill*         0x00000000c0110cbc        0x4 
 COMMON         0x00000000c0110cc0       0xb4 startup.o
                0x00000000c0110cc0                _g_intr_vector
                0x00000000c0110d00                _g_ram_zone
                0x00000000c0110d40                _g_volinfo
                0x00000000c0110d74                . = ALIGN (0x4)
                0x00000000c0110d74                _end = .
OUTPUT(eposkrnl.out elf32-i386)

.debug_info     0x0000000000000000    0x13562
 .debug_info    0x0000000000000000     0x1631 ide.o
 .debug_info    0x0000000000001631     0x117c e1000.o
 .debug_info    0x00000000000027ad      0xa4d pci.o
 .debug_info    0x00000000000031fa      0xedc vm86.o
 .debug_info    0x00000000000040d6      0x68f kbd.o
 .debug_info    0x0000000000004765      0x84c timer.o
 .debug_info    0x0000000000004fb1     0x3581 machdep.o
 .debug_info    0x0000000000008532      0x901 task.o
 .debug_info    0x0000000000008e33      0x150 mktime.o
 .debug_info    0x0000000000008f83      0x430 sem.o
 .debug_info    0x00000000000093b3      0x7f4 page.o
 .debug_info    0x0000000000009ba7      0x900 startup.o
 .debug_info    0x000000000000a4a7      0x6a7 frame.o
 .debug_info    0x000000000000ab4e      0x289 kmalloc.o
 .debug_info    0x000000000000add7     0x1c63 dosfs.o
 .debug_info    0x000000000000ca3a      0x8b2 elf.o
 .debug_info    0x000000000000d2ec      0x478 printk.o
 .debug_info    0x000000000000d764      0xece bitmap.o
 .debug_info    0x000000000000e632      0x43b ../lib/softfloat.o
 .debug_info    0x000000000000ea6d      0x726 ../lib/string.o
 .debug_info    0x000000000000f193      0x2bf ../lib/memcpy.o
 .debug_info    0x000000000000f452      0x11a ../lib/memset.o
 .debug_info    0x000000000000f56c      0xa69 ../lib/snprintf.o
 .debug_info    0x000000000000ffd5     0x358d ../lib/tlsf/tlsf.o

.debug_abbrev   0x0000000000000000     0x39a5
 .debug_abbrev  0x0000000000000000      0x252 ide.o
 .debug_abbrev  0x0000000000000252      0x362 e1000.o
 .debug_abbrev  0x00000000000005b4      0x24b pci.o
 .debug_abbrev  0x00000000000007ff      0x31b vm86.o
 .debug_abbrev  0x0000000000000b1a      0x251 kbd.o
 .debug_abbrev  0x0000000000000d6b      0x2c4 timer.o
 .debug_abbrev  0x000000000000102f      0x5c5 machdep.o
 .debug_abbrev  0x00000000000015f4      0x383 task.o
 .debug_abbrev  0x0000000000001977       0xde mktime.o
 .debug_abbrev  0x0000000000001a55      0x135 sem.o
 .debug_abbrev  0x0000000000001b8a      0x241 page.o
 .debug_abbrev  0x0000000000001dcb      0x24a startup.o
 .debug_abbrev  0x0000000000002015      0x1d5 frame.o
 .debug_abbrev  0x00000000000021ea       0xf3 kmalloc.o
 .debug_abbrev  0x00000000000022dd      0x332 dosfs.o
 .debug_abbrev  0x000000000000260f      0x1e5 elf.o
 .debug_abbrev  0x00000000000027f4      0x17e printk.o
 .debug_abbrev  0x0000000000002972      0x354 bitmap.o
 .debug_abbrev  0x0000000000002cc6      0x1ad ../lib/softfloat.o
 .debug_abbrev  0x0000000000002e73      0x1df ../lib/string.o
 .debug_abbrev  0x0000000000003052       0xb8 ../lib/memcpy.o
 .debug_abbrev  0x000000000000310a       0xa0 ../lib/memset.o
 .debug_abbrev  0x00000000000031aa      0x32c ../lib/snprintf.o
 .debug_abbrev  0x00000000000034d6      0x4cf ../lib/tlsf/tlsf.o

.debug_loc      0x0000000000000000    0x11a69
 .debug_loc     0x0000000000000000      0xb9f ide.o
 .debug_loc     0x0000000000000b9f      0x97e e1000.o
 .debug_loc     0x000000000000151d      0x8ac pci.o
 .debug_loc     0x0000000000001dc9     0x1584 vm86.o
 .debug_loc     0x000000000000334d      0x2a5 kbd.o
 .debug_loc     0x00000000000035f2      0x40b timer.o
 .debug_loc     0x00000000000039fd     0x22c7 machdep.o
 .debug_loc     0x0000000000005cc4      0x4c1 task.o
 .debug_loc     0x0000000000006185       0x9b mktime.o
 .debug_loc     0x0000000000006220      0x7c6 page.o
 .debug_loc     0x00000000000069e6      0x204 startup.o
 .debug_loc     0x0000000000006bea      0x2aa frame.o
 .debug_loc     0x0000000000006e94       0x93 kmalloc.o
 .debug_loc     0x0000000000006f27     0x1f9c dosfs.o
 .debug_loc     0x0000000000008ec3       0xd9 elf.o
 .debug_loc     0x0000000000008f9c       0x93 printk.o
 .debug_loc     0x000000000000902f      0xc71 bitmap.o
 .debug_loc     0x0000000000009ca0      0x685 ../lib/softfloat.o
 .debug_loc     0x000000000000a325      0xbea ../lib/string.o
 .debug_loc     0x000000000000af0f     0x1568 ../lib/memcpy.o
 .debug_loc     0x000000000000c477      0x241 ../lib/memset.o
 .debug_loc     0x000000000000c6b8     0x1821 ../lib/snprintf.o
 .debug_loc     0x000000000000ded9     0x3b90 ../lib/tlsf/tlsf.o

.debug_aranges  0x0000000000000000      0x300
 .debug_aranges
                0x0000000000000000       0x20 ide.o
 .debug_aranges
                0x0000000000000020       0x20 e1000.o
 .debug_aranges
                0x0000000000000040       0x20 pci.o
 .debug_aranges
                0x0000000000000060       0x20 vm86.o
 .debug_aranges
                0x0000000000000080       0x20 kbd.o
 .debug_aranges
                0x00000000000000a0       0x20 timer.o
 .debug_aranges
                0x00000000000000c0       0x20 machdep.o
 .debug_aranges
                0x00000000000000e0       0x20 task.o
 .debug_aranges
                0x0000000000000100       0x20 mktime.o
 .debug_aranges
                0x0000000000000120       0x20 sem.o
 .debug_aranges
                0x0000000000000140       0x20 page.o
 .debug_aranges
                0x0000000000000160       0x20 startup.o
 .debug_aranges
                0x0000000000000180       0x20 frame.o
 .debug_aranges
                0x00000000000001a0       0x20 kmalloc.o
 .debug_aranges
                0x00000000000001c0       0x20 dosfs.o
 .debug_aranges
                0x00000000000001e0       0x20 elf.o
 .debug_aranges
                0x0000000000000200       0x20 printk.o
 .debug_aranges
                0x0000000000000220       0x20 bitmap.o
 .debug_aranges
                0x0000000000000240       0x20 ../lib/softfloat.o
 .debug_aranges
                0x0000000000000260       0x20 ../lib/string.o
 .debug_aranges
                0x0000000000000280       0x20 ../lib/memcpy.o
 .debug_aranges
                0x00000000000002a0       0x20 ../lib/memset.o
 .debug_aranges
                0x00000000000002c0       0x20 ../lib/snprintf.o
 .debug_aranges
                0x00000000000002e0       0x20 ../lib/tlsf/tlsf.o

.debug_ranges   0x0000000000000000     0x25c0
 .debug_ranges  0x0000000000000000      0x1e8 ide.o
 .debug_ranges  0x00000000000001e8      0x198 e1000.o
 .debug_ranges  0x0000000000000380      0x2d0 pci.o
 .debug_ranges  0x0000000000000650      0x288 vm86.o
 .debug_ranges  0x00000000000008d8       0x60 kbd.o
 .debug_ranges  0x0000000000000938       0x18 timer.o
 .debug_ranges  0x0000000000000950      0x6a8 machdep.o
 .debug_ranges  0x0000000000000ff8       0x70 task.o
 .debug_ranges  0x0000000000001068       0x18 startup.o
 .debug_ranges  0x0000000000001080       0x18 frame.o
 .debug_ranges  0x0000000000001098      0x2d0 dosfs.o
 .debug_ranges  0x0000000000001368      0x598 bitmap.o
 .debug_ranges  0x0000000000001900       0x50 ../lib/softfloat.o
 .debug_ranges  0x0000000000001950       0x70 ../lib/string.o
 .debug_ranges  0x00000000000019c0       0x98 ../lib/memcpy.o
 .debug_ranges  0x0000000000001a58       0xe8 ../lib/snprintf.o
 .debug_ranges  0x0000000000001b40      0xa80 ../lib/tlsf/tlsf.o

.debug_line     0x0000000000000000     0xad11
 .debug_line    0x0000000000000000      0x91c ide.o
 .debug_line    0x000000000000091c        0x0 floppy.o
 .debug_line    0x000000000000091c      0x747 e1000.o
 .debug_line    0x0000000000001063      0x488 pci.o
 .debug_line    0x00000000000014eb      0xbe6 vm86.o
 .debug_line    0x00000000000020d1      0x2a1 kbd.o
 .debug_line    0x0000000000002372      0x360 timer.o
 .debug_line    0x00000000000026d2     0x1965 machdep.o
 .debug_line    0x0000000000004037      0x6e4 task.o
 .debug_line    0x000000000000471b       0xe5 mktime.o
 .debug_line    0x0000000000004800       0x89 sem.o
 .debug_line    0x0000000000004889      0x5f4 page.o
 .debug_line    0x0000000000004e7d      0x28e startup.o
 .debug_line    0x000000000000510b      0x2e0 frame.o
 .debug_line    0x00000000000053eb      0x128 kmalloc.o
 .debug_line    0x0000000000005513     0x1970 dosfs.o
 .debug_line    0x0000000000006e83        0x0 pe.o
 .debug_line    0x0000000000006e83      0x1f7 elf.o
 .debug_line    0x000000000000707a       0xe0 printk.o
 .debug_line    0x000000000000715a      0x8b5 bitmap.o
 .debug_line    0x0000000000007a0f      0x27d ../lib/softfloat.o
 .debug_line    0x0000000000007c8c      0x519 ../lib/string.o
 .debug_line    0x00000000000081a5      0x970 ../lib/memcpy.o
 .debug_line    0x0000000000008b15      0x1a3 ../lib/memset.o
 .debug_line    0x0000000000008cb8      0x945 ../lib/snprintf.o
 .debug_line    0x00000000000095fd     0x1714 ../lib/tlsf/tlsf.o

.debug_str      0x0000000000000000     0x22a7
 .debug_str     0x0000000000000000      0x357 ide.o
                                        0x3e6 (size before relaxing)
 .debug_str     0x0000000000000357        0x9 floppy.o
                                         0xe5 (size before relaxing)
 .debug_str     0x0000000000000360      0x1d8 e1000.o
                                        0x472 (size before relaxing)
 .debug_str     0x0000000000000538      0x15a pci.o
                                        0x326 (size before relaxing)
 .debug_str     0x0000000000000692       0x87 vm86.o
                                        0x31c (size before relaxing)
 .debug_str     0x0000000000000719       0x78 kbd.o
                                        0x2f7 (size before relaxing)
 .debug_str     0x0000000000000791       0xfb timer.o
                                        0x389 (size before relaxing)
 .debug_str     0x000000000000088c      0x71c machdep.o
                                        0xb33 (size before relaxing)
 .debug_str     0x0000000000000fa8       0x50 task.o
                                        0x344 (size before relaxing)
 .debug_str     0x0000000000000ff8        0xf mktime.o
                                        0x17b (size before relaxing)
 .debug_str     0x0000000000001007       0x47 sem.o
                                        0x2a3 (size before relaxing)
 .debug_str     0x000000000000104e       0x3c page.o
                                        0x31c (size before relaxing)
 .debug_str     0x000000000000108a      0x13e startup.o
                                        0x484 (size before relaxing)
 .debug_str     0x00000000000011c8       0x84 frame.o
                                        0x32f (size before relaxing)
 .debug_str     0x000000000000124c       0x70 kmalloc.o
                                        0x205 (size before relaxing)
 .debug_str     0x00000000000012bc      0x5e0 dosfs.o
                                        0x90e (size before relaxing)
 .debug_str     0x000000000000189c        0x5 pe.o
                                         0xe1 (size before relaxing)
 .debug_str     0x00000000000018a1      0x111 elf.o
                                        0x4ec (size before relaxing)
 .debug_str     0x00000000000019b2       0x2a printk.o
                                        0x2a0 (size before relaxing)
 .debug_str     0x00000000000019dc       0xf2 bitmap.o
                                        0x2e7 (size before relaxing)
 .debug_str     0x0000000000001ace       0x57 ../lib/softfloat.o
                                        0x1b2 (size before relaxing)
 .debug_str     0x0000000000001b25       0x74 ../lib/string.o
                                        0x1dc (size before relaxing)
 .debug_str     0x0000000000001b99       0x47 ../lib/memcpy.o
                                        0x19f (size before relaxing)
 .debug_str     0x0000000000001be0       0x15 ../lib/memset.o
                                        0x189 (size before relaxing)
 .debug_str     0x0000000000001bf5       0x93 ../lib/snprintf.o
                                        0x237 (size before relaxing)
 .debug_str     0x0000000000001c88      0x61f ../lib/tlsf/tlsf.o
                                        0x82d (size before relaxing)

.comment        0x0000000000000000       0x29
 .comment       0x0000000000000000       0x29 ide.o
                                         0x2a (size before relaxing)
 .comment       0x0000000000000029       0x2a floppy.o
 .comment       0x0000000000000029       0x2a e1000.o
 .comment       0x0000000000000029       0x2a pci.o
 .comment       0x0000000000000029       0x2a vm86.o
 .comment       0x0000000000000029       0x2a kbd.o
 .comment       0x0000000000000029       0x2a timer.o
 .comment       0x0000000000000029       0x2a machdep.o
 .comment       0x0000000000000029       0x2a task.o
 .comment       0x0000000000000029       0x2a mktime.o
 .comment       0x0000000000000029       0x2a sem.o
 .comment       0x0000000000000029       0x2a page.o
 .comment       0x0000000000000029       0x2a startup.o
 .comment       0x0000000000000029       0x2a frame.o
 .comment       0x0000000000000029       0x2a kmalloc.o
 .comment       0x0000000000000029       0x2a dosfs.o
 .comment       0x0000000000000029       0x2a pe.o
 .comment       0x0000000000000029       0x2a elf.o
 .comment       0x0000000000000029       0x2a printk.o
 .comment       0x0000000000000029       0x2a bitmap.o
 .comment       0x0000000000000029       0x2a ../lib/softfloat.o
 .comment       0x0000000000000029       0x2a ../lib/string.o
 .comment       0x0000000000000029       0x2a ../lib/memcpy.o
 .comment       0x0000000000000029       0x2a ../lib/memset.o
 .comment       0x0000000000000029       0x2a ../lib/snprintf.o
 .comment       0x0000000000000029       0x2a ../lib/tlsf/tlsf.o

.note.GNU-stack
                0x0000000000000000        0x0
 .note.GNU-stack
                0x0000000000000000        0x0 ide.o
 .note.GNU-stack
                0x0000000000000000        0x0 floppy.o
 .note.GNU-stack
                0x0000000000000000        0x0 e1000.o
 .note.GNU-stack
                0x0000000000000000        0x0 pci.o
 .note.GNU-stack
                0x0000000000000000        0x0 vm86.o
 .note.GNU-stack
                0x0000000000000000        0x0 kbd.o
 .note.GNU-stack
                0x0000000000000000        0x0 timer.o
 .note.GNU-stack
                0x0000000000000000        0x0 machdep.o
 .note.GNU-stack
                0x0000000000000000        0x0 task.o
 .note.GNU-stack
                0x0000000000000000        0x0 mktime.o
 .note.GNU-stack
                0x0000000000000000        0x0 sem.o
 .note.GNU-stack
                0x0000000000000000        0x0 page.o
 .note.GNU-stack
                0x0000000000000000        0x0 startup.o
 .note.GNU-stack
                0x0000000000000000        0x0 frame.o
 .note.GNU-stack
                0x0000000000000000        0x0 kmalloc.o
 .note.GNU-stack
                0x0000000000000000        0x0 dosfs.o
 .note.GNU-stack
                0x0000000000000000        0x0 pe.o
 .note.GNU-stack
                0x0000000000000000        0x0 elf.o
 .note.GNU-stack
                0x0000000000000000        0x0 printk.o
 .note.GNU-stack
                0x0000000000000000        0x0 bitmap.o
 .note.GNU-stack
                0x0000000000000000        0x0 ../lib/softfloat.o
 .note.GNU-stack
                0x0000000000000000        0x0 ../lib/string.o
 .note.GNU-stack
                0x0000000000000000        0x0 ../lib/memcpy.o
 .note.GNU-stack
                0x0000000000000000        0x0 ../lib/memset.o
 .note.GNU-stack
                0x0000000000000000        0x0 ../lib/snprintf.o
 .note.GNU-stack
                0x0000000000000000        0x0 ../lib/tlsf/tlsf.o
